target datalayout = "e-m:e-p270:32:32-p271:32:32-p272:64:64-i64:64-i128:128-f80:128-n8:16:32:64-S128"
target triple = "x86_64-pc-linux-gnu"

%struct.wpacket_st = type { ptr, ptr, i64, i64, i64, ptr, i8 }

; Function Attrs: nounwind uwtable
define i32 @ossl_encode_der_length(ptr noundef %0, i64 noundef %1) #0 {
  %3 = alloca i32, align 4
  %4 = alloca ptr, align 8
  %5 = alloca i64, align 8
  store ptr %0, ptr %4, align 8, !tbaa !3
  store i64 %1, ptr %5, align 8, !tbaa !8
  %6 = load i64, ptr %5, align 8, !tbaa !8
  %7 = icmp ugt i64 %6, 65535
  br i1 %7, label %8, label %9

8:                                                ; preds = %2
  store i32 0, ptr %3, align 4
  br label %39

9:                                                ; preds = %2
  %10 = load i64, ptr %5, align 8, !tbaa !8
  %11 = icmp ugt i64 %10, 255
  br i1 %11, label %12, label %23

12:                                               ; preds = %9
  %13 = load ptr, ptr %4, align 8, !tbaa !3
  %14 = call i32 @WPACKET_put_bytes__(ptr noundef %13, i64 noundef 130, i64 noundef 1)
  %15 = icmp ne i32 %14, 0
  br i1 %15, label %16, label %21

16:                                               ; preds = %12
  %17 = load ptr, ptr %4, align 8, !tbaa !3
  %18 = load i64, ptr %5, align 8, !tbaa !8
  %19 = call i32 @WPACKET_put_bytes__(ptr noundef %17, i64 noundef %18, i64 noundef 2)
  %20 = icmp ne i32 %19, 0
  br i1 %20, label %22, label %21

21:                                               ; preds = %16, %12
  store i32 0, ptr %3, align 4
  br label %39

22:                                               ; preds = %16
  br label %38

23:                                               ; preds = %9
  %24 = load i64, ptr %5, align 8, !tbaa !8
  %25 = icmp ugt i64 %24, 127
  br i1 %25, label %26, label %31

26:                                               ; preds = %23
  %27 = load ptr, ptr %4, align 8, !tbaa !3
  %28 = call i32 @WPACKET_put_bytes__(ptr noundef %27, i64 noundef 129, i64 noundef 1)
  %29 = icmp ne i32 %28, 0
  br i1 %29, label %31, label %30

30:                                               ; preds = %26
  store i32 0, ptr %3, align 4
  br label %39

31:                                               ; preds = %26, %23
  %32 = load ptr, ptr %4, align 8, !tbaa !3
  %33 = load i64, ptr %5, align 8, !tbaa !8
  %34 = call i32 @WPACKET_put_bytes__(ptr noundef %32, i64 noundef %33, i64 noundef 1)
  %35 = icmp ne i32 %34, 0
  br i1 %35, label %37, label %36

36:                                               ; preds = %31
  store i32 0, ptr %3, align 4
  br label %39

37:                                               ; preds = %31
  br label %38

38:                                               ; preds = %37, %22
  store i32 1, ptr %3, align 4
  br label %39

39:                                               ; preds = %38, %36, %30, %21, %8
  %40 = load i32, ptr %3, align 4
  ret i32 %40
}

; Function Attrs: nounwind uwtable
define i32 @ossl_encode_der_dsa_sig(ptr noundef %0, ptr noundef %1, ptr noundef %2) #0 {
  %4 = alloca i32, align 4
  %5 = alloca ptr, align 8
  %6 = alloca ptr, align 8
  %7 = alloca ptr, align 8
  %8 = alloca %struct.wpacket_st, align 8
  %9 = alloca ptr, align 8
  %10 = alloca i64, align 8
  %11 = alloca i32, align 4
  %12 = alloca i32, align 4
  store ptr %0, ptr %5, align 8, !tbaa !3
  store ptr %1, ptr %6, align 8, !tbaa !10
  store ptr %2, ptr %7, align 8, !tbaa !10
  call void @llvm.lifetime.start.p0(i64 56, ptr %8) #5
  call void @llvm.lifetime.start.p0(i64 8, ptr %9) #5
  call void @llvm.lifetime.start.p0(i64 8, ptr %10) #5
  call void @llvm.lifetime.start.p0(i64 4, ptr %11) #5
  %13 = load ptr, ptr %5, align 8, !tbaa !3
  %14 = call i32 @WPACKET_is_null_buf(ptr noundef %13)
  store i32 %14, ptr %11, align 4, !tbaa !14
  %15 = load ptr, ptr %5, align 8, !tbaa !3
  %16 = call i32 @WPACKET_start_sub_packet(ptr noundef %15)
  %17 = icmp ne i32 %16, 0
  br i1 %17, label %19, label %18

18:                                               ; preds = %3
  store i32 0, ptr %4, align 4
  store i32 1, ptr %12, align 4
  br label %87

19:                                               ; preds = %3
  %20 = load i32, ptr %11, align 4, !tbaa !14
  %21 = icmp ne i32 %20, 0
  br i1 %21, label %27, label %22

22:                                               ; preds = %19
  %23 = call i32 @WPACKET_init_null(ptr noundef %8, i64 noundef 0)
  %24 = icmp ne i32 %23, 0
  br i1 %24, label %26, label %25

25:                                               ; preds = %22
  store i32 0, ptr %4, align 4
  store i32 1, ptr %12, align 4
  br label %87

26:                                               ; preds = %22
  store ptr %8, ptr %9, align 8, !tbaa !3
  br label %29

27:                                               ; preds = %19
  %28 = load ptr, ptr %5, align 8, !tbaa !3
  store ptr %28, ptr %9, align 8, !tbaa !3
  br label %29

29:                                               ; preds = %27, %26
  %30 = load ptr, ptr %9, align 8, !tbaa !3
  %31 = load ptr, ptr %6, align 8, !tbaa !10
  %32 = call i32 @ossl_encode_der_integer(ptr noundef %30, ptr noundef %31)
  %33 = icmp ne i32 %32, 0
  br i1 %33, label %34, label %50

34:                                               ; preds = %29
  %35 = load ptr, ptr %9, align 8, !tbaa !3
  %36 = load ptr, ptr %7, align 8, !tbaa !10
  %37 = call i32 @ossl_encode_der_integer(ptr noundef %35, ptr noundef %36)
  %38 = icmp ne i32 %37, 0
  br i1 %38, label %39, label %50

39:                                               ; preds = %34
  %40 = load ptr, ptr %9, align 8, !tbaa !3
  %41 = call i32 @WPACKET_get_length(ptr noundef %40, ptr noundef %10)
  %42 = icmp ne i32 %41, 0
  br i1 %42, label %43, label %50

43:                                               ; preds = %39
  %44 = load i32, ptr %11, align 4, !tbaa !14
  %45 = icmp ne i32 %44, 0
  br i1 %45, label %56, label %46

46:                                               ; preds = %43
  %47 = load ptr, ptr %9, align 8, !tbaa !3
  %48 = call i32 @WPACKET_finish(ptr noundef %47)
  %49 = icmp ne i32 %48, 0
  br i1 %49, label %56, label %50

50:                                               ; preds = %46, %39, %34, %29
  %51 = load i32, ptr %11, align 4, !tbaa !14
  %52 = icmp ne i32 %51, 0
  br i1 %52, label %55, label %53

53:                                               ; preds = %50
  %54 = load ptr, ptr %9, align 8, !tbaa !3
  call void @WPACKET_cleanup(ptr noundef %54)
  br label %55

55:                                               ; preds = %53, %50
  store i32 0, ptr %4, align 4
  store i32 1, ptr %12, align 4
  br label %87

56:                                               ; preds = %46, %43
  %57 = load ptr, ptr %5, align 8, !tbaa !3
  %58 = call i32 @WPACKET_put_bytes__(ptr noundef %57, i64 noundef 48, i64 noundef 1)
  %59 = icmp ne i32 %58, 0
  br i1 %59, label %60, label %85

60:                                               ; preds = %56
  %61 = load ptr, ptr %5, align 8, !tbaa !3
  %62 = load i64, ptr %10, align 8, !tbaa !8
  %63 = call i32 @ossl_encode_der_length(ptr noundef %61, i64 noundef %62)
  %64 = icmp ne i32 %63, 0
  br i1 %64, label %65, label %85

65:                                               ; preds = %60
  %66 = load i32, ptr %11, align 4, !tbaa !14
  %67 = icmp ne i32 %66, 0
  br i1 %67, label %73, label %68

68:                                               ; preds = %65
  %69 = load ptr, ptr %5, align 8, !tbaa !3
  %70 = load ptr, ptr %6, align 8, !tbaa !10
  %71 = call i32 @ossl_encode_der_integer(ptr noundef %69, ptr noundef %70)
  %72 = icmp ne i32 %71, 0
  br i1 %72, label %73, label %85

73:                                               ; preds = %68, %65
  %74 = load i32, ptr %11, align 4, !tbaa !14
  %75 = icmp ne i32 %74, 0
  br i1 %75, label %81, label %76

76:                                               ; preds = %73
  %77 = load ptr, ptr %5, align 8, !tbaa !3
  %78 = load ptr, ptr %7, align 8, !tbaa !10
  %79 = call i32 @ossl_encode_der_integer(ptr noundef %77, ptr noundef %78)
  %80 = icmp ne i32 %79, 0
  br i1 %80, label %81, label %85

81:                                               ; preds = %76, %73
  %82 = load ptr, ptr %5, align 8, !tbaa !3
  %83 = call i32 @WPACKET_close(ptr noundef %82)
  %84 = icmp ne i32 %83, 0
  br i1 %84, label %86, label %85

85:                                               ; preds = %81, %76, %68, %60, %56
  store i32 0, ptr %4, align 4
  store i32 1, ptr %12, align 4
  br label %87

86:                                               ; preds = %81
  store i32 1, ptr %4, align 4
  store i32 1, ptr %12, align 4
  br label %87

87:                                               ; preds = %86, %85, %55, %25, %18
  call void @llvm.lifetime.end.p0(i64 4, ptr %11) #5
  call void @llvm.lifetime.end.p0(i64 8, ptr %10) #5
  call void @llvm.lifetime.end.p0(i64 8, ptr %9) #5
  call void @llvm.lifetime.end.p0(i64 56, ptr %8) #5
  %88 = load i32, ptr %4, align 4
  ret i32 %88
}