; Function Attrs: nounwind uwtable
define range(i32 0, 2) i32 @ossl_encode_der_dsa_sig(ptr noundef %0, ptr noundef %1, ptr noundef %2) local_unnamed_addr #0 {
  %4 = alloca %struct.wpacket_st, align 8
  %5 = alloca i64, align 8
  call void @llvm.lifetime.start.p0(i64 56, ptr nonnull %4) #4
  call void @llvm.lifetime.start.p0(i64 8, ptr nonnull %5) #4
  %6 = tail call i32 @WPACKET_is_null_buf(ptr noundef %0) #4
  %7 = tail call i32 @WPACKET_start_sub_packet(ptr noundef %0) #4
  %.not = icmp eq i32 %7, 0
  br i1 %.not, label %ossl_encode_der_length.exit.thread, label %8

8:                                                ; preds = %3
  %.not23 = icmp eq i32 %6, 0
  br i1 %.not23, label %9, label %11

9:                                                ; preds = %8
  %10 = call i32 @WPACKET_init_null(ptr noundef nonnull %4, i64 noundef 0) #4
  %.not24 = icmp eq i32 %10, 0
  br i1 %.not24, label %ossl_encode_der_length.exit.thread, label %11

11:                                               ; preds = %8, %9
  %.022 = phi ptr [ %4, %9 ], [ %0, %8 ]
  %12 = call i32 @ossl_encode_der_integer(ptr noundef %.022, ptr noundef %1)
  %.not25 = icmp eq i32 %12, 0
  br i1 %.not25, label %20, label %13

13:                                               ; preds = %11
  %14 = call i32 @ossl_encode_der_integer(ptr noundef %.022, ptr noundef %2)
  %.not26 = icmp eq i32 %14, 0
  br i1 %.not26, label %20, label %15

15:                                               ; preds = %13
  %16 = call i32 @WPACKET_get_length(ptr noundef %.022, ptr noundef nonnull %5) #4
  %.not27 = icmp eq i32 %16, 0
  br i1 %.not27, label %20, label %17

17:                                               ; preds = %15
  br i1 %.not23, label %18, label %21

18:                                               ; preds = %17
  %19 = call i32 @WPACKET_finish(ptr noundef %.022) #4
  %.not28 = icmp eq i32 %19, 0
  br i1 %.not28, label %.thread, label %21

20:                                               ; preds = %15, %13, %11
  br i1 %.not23, label %.thread, label %ossl_encode_der_length.exit.thread

.thread:                                          ; preds = %18, %20
  call void @WPACKET_cleanup(ptr noundef %.022) #4
  br label %ossl_encode_der_length.exit.thread

21:                                               ; preds = %18, %17
  %22 = call i32 @WPACKET_put_bytes__(ptr noundef %0, i64 noundef 48, i64 noundef 1) #4
  %.not29 = icmp eq i32 %22, 0
  br i1 %.not29, label %ossl_encode_der_length.exit.thread, label %23

23:                                               ; preds = %21
  %24 = load i64, ptr %5, align 8, !tbaa !8
  %25 = icmp ugt i64 %24, 65535
  br i1 %25, label %ossl_encode_der_length.exit.thread, label %26

26:                                               ; preds = %23
  %27 = icmp samesign ugt i64 %24, 255
  br i1 %27, label %28, label %32

28:                                               ; preds = %26
  %29 = call i32 @WPACKET_put_bytes__(ptr noundef %0, i64 noundef 130, i64 noundef 1) #4
  %.not11.i = icmp eq i32 %29, 0
  br i1 %.not11.i, label %ossl_encode_der_length.exit.thread, label %30

30:                                               ; preds = %28
  %31 = call i32 @WPACKET_put_bytes__(ptr noundef %0, i64 noundef %24, i64 noundef 2) #4
  %.not12.i = icmp eq i32 %31, 0
  br i1 %.not12.i, label %ossl_encode_der_length.exit.thread, label %ossl_encode_der_length.exit

32:                                               ; preds = %26
  %33 = icmp samesign ugt i64 %24, 127
  br i1 %33, label %34, label %36

34:                                               ; preds = %32
  %35 = call i32 @WPACKET_put_bytes__(ptr noundef %0, i64 noundef 129, i64 noundef 1) #4
  %.not.i = icmp eq i32 %35, 0
  br i1 %.not.i, label %ossl_encode_der_length.exit.thread, label %36

36:                                               ; preds = %34, %32
  %37 = call i32 @WPACKET_put_bytes__(ptr noundef %0, i64 noundef %24, i64 noundef 1) #4
  %.not10.i = icmp eq i32 %37, 0
  br i1 %.not10.i, label %ossl_encode_der_length.exit.thread, label %ossl_encode_der_length.exit

ossl_encode_der_length.exit:                      ; preds = %36, %30
  br i1 %.not23, label %38, label %.critedge

38:                                               ; preds = %ossl_encode_der_length.exit
  %39 = call i32 @ossl_encode_der_integer(ptr noundef %0, ptr noundef %1)
  %.not31 = icmp eq i32 %39, 0
  br i1 %.not31, label %ossl_encode_der_length.exit.thread, label %40

40:                                               ; preds = %38
  %41 = call i32 @ossl_encode_der_integer(ptr noundef %0, ptr noundef %2)
  %.not32 = icmp eq i32 %41, 0
  br i1 %.not32, label %ossl_encode_der_length.exit.thread, label %.critedge

.critedge:                                        ; preds = %ossl_encode_der_length.exit, %40
  %42 = call i32 @WPACKET_close(ptr noundef %0) #4
  %.not33 = icmp ne i32 %42, 0
  %spec.select = zext i1 %.not33 to i32
  br label %ossl_encode_der_length.exit.thread

ossl_encode_der_length.exit.thread:               ; preds = %36, %34, %28, %30, %23, %.critedge, %21, %38, %40, %20, %.thread, %9, %3
  %.0 = phi i32 [ 0, %3 ], [ 0, %9 ], [ 0, %.thread ], [ 0, %20 ], [ 0, %40 ], [ 0, %38 ], [ 0, %21 ], [ %spec.select, %.critedge ], [ 0, %23 ], [ 0, %30 ], [ 0, %28 ], [ 0, %34 ], [ 0, %36 ]
  call void @llvm.lifetime.end.p0(i64 8, ptr nonnull %5) #4
  call void @llvm.lifetime.end.p0(i64 56, ptr nonnull %4) #4
  ret i32 %.0
}